target datalayout = "e-m:e-p270:32:32-p271:32:32-p272:64:64-i64:64-i128:128-f80:128-n8:16:32:64-S128"
target triple = "x86_64-pc-linux-gnu"

%struct.PortalData = type { ptr, ptr, ptr, ptr, ptr, i32, i32, i32, ptr, i32, %struct.QueryCompletion, ptr, ptr, ptr, ptr, i32, i32, i32, i8, i8, ptr, ptr, ptr, ptr, ptr, ptr, ptr, i8, i8, i64, i64, i8 }
%struct.QueryCompletion = type { i32, i64 }
%struct.__jmp_buf_tag = type { [8 x i64], i32, %struct.__sigset_t }
%struct.__sigset_t = type { [16 x i64] }

@ActivePortal = dso_local global ptr null, align 8
@.str.1 = private unnamed_addr constant [9 x i8] c"pquery.c\00", align 1
@CurrentResourceOwner = external global ptr, align 8
@PortalContext = external global ptr, align 8
@PG_exception_stack = external global ptr, align 8
@error_context_stack = external global ptr, align 8
@CurrentMemoryContext = external global ptr, align 8
@.str.6 = private unnamed_addr constant [28 x i8] c"unsupported portal strategy\00", align 1
@__func__.PortalRunFetch = private unnamed_addr constant [15 x i8] c"PortalRunFetch\00", align 1

; Function Attrs: inlinehint nounwind uwtable
define internal ptr @MemoryContextSwitchTo(ptr noundef %0) #3 {
  %2 = alloca ptr, align 8
  %3 = alloca ptr, align 8
  store ptr %0, ptr %2, align 8
  call void @llvm.lifetime.start.p0(i64 8, ptr %3) #10
  %4 = load ptr, ptr @CurrentMemoryContext, align 8
  store ptr %4, ptr %3, align 8
  %5 = load ptr, ptr %2, align 8
  store ptr %5, ptr @CurrentMemoryContext, align 8
  %6 = load ptr, ptr %3, align 8
  call void @llvm.lifetime.end.p0(i64 8, ptr %3) #10
  ret ptr %6
}

; Function Attrs: nounwind uwtable
define dso_local i64 @PortalRunFetch(ptr noundef %0, i32 noundef %1, i64 noundef %2, ptr noundef %3) #0 {
  %5 = alloca ptr, align 8
  %6 = alloca i32, align 4
  %7 = alloca i64, align 8
  %8 = alloca ptr, align 8
  %9 = alloca i64, align 8
  %10 = alloca ptr, align 8
  %11 = alloca ptr, align 8
  %12 = alloca ptr, align 8
  %13 = alloca ptr, align 8
  %14 = alloca ptr, align 8
  %15 = alloca ptr, align 8
  %16 = alloca [1 x %struct.__jmp_buf_tag], align 16
  %17 = alloca i8, align 1
  store ptr %0, ptr %5, align 8
  store i32 %1, ptr %6, align 4
  store i64 %2, ptr %7, align 8
  store ptr %3, ptr %8, align 8
  call void @llvm.lifetime.start.p0(i64 8, ptr %9) #10
  call void @llvm.lifetime.start.p0(i64 8, ptr %10) #10
  call void @llvm.lifetime.start.p0(i64 8, ptr %11) #10
  call void @llvm.lifetime.start.p0(i64 8, ptr %12) #10
  call void @llvm.lifetime.start.p0(i64 8, ptr %13) #10
  %18 = load ptr, ptr %5, align 8
  call void @MarkPortalActive(ptr noundef %18)
  %19 = load ptr, ptr @ActivePortal, align 8
  store ptr %19, ptr %10, align 8
  %20 = load ptr, ptr @CurrentResourceOwner, align 8
  store ptr %20, ptr %11, align 8
  %21 = load ptr, ptr @PortalContext, align 8
  store ptr %21, ptr %12, align 8
  br label %22

22:                                               ; preds = %4
  call void @llvm.lifetime.start.p0(i64 8, ptr %14) #10
  %23 = load ptr, ptr @PG_exception_stack, align 8
  store ptr %23, ptr %14, align 8
  call void @llvm.lifetime.start.p0(i64 8, ptr %15) #10
  %24 = load ptr, ptr @error_context_stack, align 8
  store ptr %24, ptr %15, align 8
  call void @llvm.lifetime.start.p0(i64 200, ptr %16) #10
  call void @llvm.lifetime.start.p0(i64 1, ptr %17) #10
  store i8 0, ptr %17, align 1
  %25 = getelementptr inbounds [1 x %struct.__jmp_buf_tag], ptr %16, i64 0, i64 0
  %26 = call i32 @__sigsetjmp(ptr noundef %25, i32 noundef 0) #12
  %27 = icmp eq i32 %26, 0
  br i1 %27, label %28, label %78

28:                                               ; preds = %22
  store ptr %16, ptr @PG_exception_stack, align 8
  %29 = load ptr, ptr %5, align 8
  store ptr %29, ptr @ActivePortal, align 8
  %30 = load ptr, ptr %5, align 8
  %31 = getelementptr inbounds nuw %struct.PortalData, ptr %30, i32 0, i32 3
  %32 = load ptr, ptr %31, align 8
  %33 = icmp ne ptr %32, null
  br i1 %33, label %34, label %38

34:                                               ; preds = %28
  %35 = load ptr, ptr %5, align 8
  %36 = getelementptr inbounds nuw %struct.PortalData, ptr %35, i32 0, i32 3
  %37 = load ptr, ptr %36, align 8
  store ptr %37, ptr @CurrentResourceOwner, align 8
  br label %38

38:                                               ; preds = %34, %28
  %39 = load ptr, ptr %5, align 8
  %40 = getelementptr inbounds nuw %struct.PortalData, ptr %39, i32 0, i32 2
  %41 = load ptr, ptr %40, align 8
  store ptr %41, ptr @PortalContext, align 8
  %42 = load ptr, ptr @PortalContext, align 8
  %43 = call ptr @MemoryContextSwitchTo(ptr noundef %42)
  store ptr %43, ptr %13, align 8
  %44 = load ptr, ptr %5, align 8
  %45 = getelementptr inbounds nuw %struct.PortalData, ptr %44, i32 0, i32 15
  %46 = load i32, ptr %45, align 8
  switch i32 %46, label %66 [
    i32 0, label %47
    i32 1, label %53
    i32 2, label %53
    i32 3, label %53
  ]

47:                                               ; preds = %38
  %48 = load ptr, ptr %5, align 8
  %49 = load i32, ptr %6, align 4
  %50 = load i64, ptr %7, align 8
  %51 = load ptr, ptr %8, align 8
  %52 = call i64 @DoPortalRunFetch(ptr noundef %48, i32 noundef %49, i64 noundef %50, ptr noundef %51)
  store i64 %52, ptr %9, align 8
  br label %77

53:                                               ; preds = %38, %38, %38
  %54 = load ptr, ptr %5, align 8
  %55 = getelementptr inbounds nuw %struct.PortalData, ptr %54, i32 0, i32 24
  %56 = load ptr, ptr %55, align 8
  %57 = icmp ne ptr %56, null
  br i1 %57, label %60, label %58

58:                                               ; preds = %53
  %59 = load ptr, ptr %5, align 8
  call void @FillPortalStore(ptr noundef %59, i1 noundef zeroext false)
  br label %60

60:                                               ; preds = %58, %53
  %61 = load ptr, ptr %5, align 8
  %62 = load i32, ptr %6, align 4
  %63 = load i64, ptr %7, align 8
  %64 = load ptr, ptr %8, align 8
  %65 = call i64 @DoPortalRunFetch(ptr noundef %61, i32 noundef %62, i64 noundef %63, ptr noundef %64)
  store i64 %65, ptr %9, align 8
  br label %77

66:                                               ; preds = %38
  br label %67

67:                                               ; preds = %66
  br i1 true, label %68, label %70

68:                                               ; preds = %67
  %69 = call zeroext i1 @errstart_cold(i32 noundef 21, ptr noundef null) #11
  br i1 %69, label %72, label %74

70:                                               ; preds = %67
  %71 = call zeroext i1 @errstart(i32 noundef 21, ptr noundef null)
  br i1 %71, label %72, label %74

72:                                               ; preds = %70, %68
  %73 = call i32 (ptr, ...) @errmsg_internal(ptr noundef @.str.6)
  call void @errfinish(ptr noundef @.str.1, i32 noundef 1442, ptr noundef @__func__.PortalRunFetch)
  br label %74

74:                                               ; preds = %72, %70, %68
  unreachable

75:                                               ; No predecessors!
  br label %76

76:                                               ; preds = %75
  store i64 0, ptr %9, align 8
  br label %77

77:                                               ; preds = %76, %60, %47
  br label %85

78:                                               ; preds = %22
  %79 = load ptr, ptr %14, align 8
  store ptr %79, ptr @PG_exception_stack, align 8
  %80 = load ptr, ptr %15, align 8
  store ptr %80, ptr @error_context_stack, align 8
  %81 = load ptr, ptr %5, align 8
  call void @MarkPortalFailed(ptr noundef %81)
  %82 = load ptr, ptr %10, align 8
  store ptr %82, ptr @ActivePortal, align 8
  %83 = load ptr, ptr %11, align 8
  store ptr %83, ptr @CurrentResourceOwner, align 8
  %84 = load ptr, ptr %12, align 8
  store ptr %84, ptr @PortalContext, align 8
  call void @pg_re_throw() #13
  unreachable

85:                                               ; preds = %77
  %86 = load i8, ptr %17, align 1, !range !4, !noundef !5
  %87 = trunc i8 %86 to i1
  br i1 %87, label %88, label %89

88:                                               ; preds = %85
  call void @pg_re_throw() #13
  unreachable

89:                                               ; preds = %85
  %90 = load ptr, ptr %14, align 8
  store ptr %90, ptr @PG_exception_stack, align 8
  %91 = load ptr, ptr %15, align 8
  store ptr %91, ptr @error_context_stack, align 8
  call void @llvm.lifetime.end.p0(i64 1, ptr %17) #10
  call void @llvm.lifetime.end.p0(i64 200, ptr %16) #10
  call void @llvm.lifetime.end.p0(i64 8, ptr %15) #10
  call void @llvm.lifetime.end.p0(i64 8, ptr %14) #10
  br label %92

92:                                               ; preds = %89
  br label %93

93:                                               ; preds = %92
  %94 = load ptr, ptr %13, align 8
  %95 = call ptr @MemoryContextSwitchTo(ptr noundef %94)
  %96 = load ptr, ptr %5, align 8
  %97 = getelementptr inbounds nuw %struct.PortalData, ptr %96, i32 0, i32 17
  store i32 2, ptr %97, align 8
  %98 = load ptr, ptr %10, align 8
  store ptr %98, ptr @ActivePortal, align 8
  %99 = load ptr, ptr %11, align 8
  store ptr %99, ptr @CurrentResourceOwner, align 8
  %100 = load ptr, ptr %12, align 8
  store ptr %100, ptr @PortalContext, align 8
  %101 = load i64, ptr %9, align 8
  call void @llvm.lifetime.end.p0(i64 8, ptr %13) #10
  call void @llvm.lifetime.end.p0(i64 8, ptr %12) #10
  call void @llvm.lifetime.end.p0(i64 8, ptr %11) #10
  call void @llvm.lifetime.end.p0(i64 8, ptr %10) #10
  call void @llvm.lifetime.end.p0(i64 8, ptr %9) #10
  ret i64 %101
}