; Function Attrs: nounwind uwtable
define dso_local i64 @PortalRunFetch(ptr noundef %0, i32 noundef %1, i64 noundef %2, ptr noundef %3) local_unnamed_addr #0 {
  %5 = alloca [1 x %struct.__jmp_buf_tag], align 16
  call void @MarkPortalActive(ptr noundef %0) #11
  %6 = load ptr, ptr @ActivePortal, align 8
  %7 = load ptr, ptr @CurrentResourceOwner, align 8
  %8 = load ptr, ptr @PortalContext, align 8
  %9 = load ptr, ptr @PG_exception_stack, align 8
  %10 = load ptr, ptr @error_context_stack, align 8
  call void @llvm.lifetime.start.p0(i64 200, ptr nonnull %5) #11
  %11 = call i32 @__sigsetjmp(ptr noundef nonnull %5, i32 noundef 0) #13
  %12 = icmp eq i32 %11, 0
  br i1 %12, label %13, label %30

13:                                               ; preds = %4
  store ptr %5, ptr @PG_exception_stack, align 8
  store ptr %0, ptr @ActivePortal, align 8
  %14 = getelementptr inbounds nuw i8, ptr %0, i64 24
  %15 = load ptr, ptr %14, align 8
  %.not = icmp eq ptr %15, null
  br i1 %.not, label %17, label %16

16:                                               ; preds = %13
  store ptr %15, ptr @CurrentResourceOwner, align 8
  br label %17

17:                                               ; preds = %16, %13
  %18 = getelementptr inbounds nuw i8, ptr %0, i64 16
  %19 = load ptr, ptr %18, align 8
  store ptr %19, ptr @PortalContext, align 8
  %20 = load ptr, ptr @CurrentMemoryContext, align 8
  store ptr %19, ptr @CurrentMemoryContext, align 8
  %21 = getelementptr inbounds nuw i8, ptr %0, i64 120
  %22 = load i32, ptr %21, align 8
  switch i32 %22, label %27 [
    i32 0, label %31
    i32 1, label %23
    i32 2, label %23
    i32 3, label %23
  ]

23:                                               ; preds = %17, %17, %17
  %24 = getelementptr inbounds nuw i8, ptr %0, i64 168
  %25 = load ptr, ptr %24, align 8
  %.not31 = icmp eq ptr %25, null
  br i1 %.not31, label %26, label %31

26:                                               ; preds = %23
  call fastcc void @FillPortalStore(ptr noundef nonnull %0, i1 noundef zeroext false)
  br label %31

27:                                               ; preds = %17
  %28 = call zeroext i1 @errstart_cold(i32 noundef 21, ptr noundef null) #12
  call void @llvm.assume(i1 %28)
  %29 = call i32 (ptr, ...) @errmsg_internal(ptr noundef nonnull @.str.6) #11
  call void @errfinish(ptr noundef nonnull @.str.1, i32 noundef 1442, ptr noundef nonnull @__func__.PortalRunFetch) #11
  unreachable

30:                                               ; preds = %4
  store ptr %9, ptr @PG_exception_stack, align 8
  store ptr %10, ptr @error_context_stack, align 8
  call void @MarkPortalFailed(ptr noundef %0) #11
  store ptr %6, ptr @ActivePortal, align 8
  store ptr %7, ptr @CurrentResourceOwner, align 8
  store ptr %8, ptr @PortalContext, align 8
  call void @pg_re_throw() #14
  unreachable

31:                                               ; preds = %23, %26, %17
  %32 = call fastcc i64 @DoPortalRunFetch(ptr noundef nonnull %0, i32 noundef %1, i64 noundef %2, ptr noundef %3)
  store ptr %9, ptr @PG_exception_stack, align 8
  store ptr %10, ptr @error_context_stack, align 8
  call void @llvm.lifetime.end.p0(i64 200, ptr nonnull %5) #11
  store ptr %20, ptr @CurrentMemoryContext, align 8
  %33 = getelementptr inbounds nuw i8, ptr %0, i64 128
  store i32 2, ptr %33, align 8
  store ptr %6, ptr @ActivePortal, align 8
  store ptr %7, ptr @CurrentResourceOwner, align 8
  store ptr %8, ptr @PortalContext, align 8
  ret i64 %32
}